target datalayout = "e-m:e-p270:32:32-p271:32:32-p272:64:64-i64:64-i128:128-f80:128-n8:16:32:64-S128"
target triple = "x86_64-pc-linux-gnu"

@.str.79 = private unnamed_addr constant [4 x i8] c"KiB\00", align 1
@.str.80 = private unnamed_addr constant [3 x i8] c"KB\00", align 1
@.str.81 = private unnamed_addr constant [4 x i8] c"MiB\00", align 1
@.str.82 = private unnamed_addr constant [3 x i8] c"MB\00", align 1
@.str.83 = private unnamed_addr constant [4 x i8] c"GiB\00", align 1
@.str.84 = private unnamed_addr constant [3 x i8] c"GB\00", align 1
@.str.85 = private unnamed_addr constant [4 x i8] c"TiB\00", align 1
@.str.86 = private unnamed_addr constant [3 x i8] c"TB\00", align 1
@.str.87 = private unnamed_addr constant [5 x i8] c"%llu\00", align 1
@.str.88 = private unnamed_addr constant [7 x i8] c"%llu%s\00", align 1

; Function Attrs: inlinehint nounwind uwtable
define internal i32 @hwloc_memory_size_snprintf(ptr noundef %0, i64 noundef %1, i64 noundef %2, i64 noundef %3) #8 {
  %5 = alloca i32, align 4
  %6 = alloca ptr, align 8
  %7 = alloca i64, align 8
  %8 = alloca i64, align 8
  %9 = alloca i64, align 8
  store ptr %0, ptr %6, align 8, !tbaa !33
  store i64 %1, ptr %7, align 8, !tbaa !79
  store i64 %2, ptr %8, align 8, !tbaa !133
  store i64 %3, ptr %9, align 8, !tbaa !79
  %10 = load i64, ptr %9, align 8, !tbaa !79
  %11 = and i64 %10, 16
  %12 = icmp ne i64 %11, 0
  br i1 %12, label %13, label %18

13:                                               ; preds = %4
  %14 = load ptr, ptr %6, align 8, !tbaa !33
  %15 = load i64, ptr %7, align 8, !tbaa !79
  %16 = load i64, ptr %8, align 8, !tbaa !133
  %17 = call i32 (ptr, i64, ptr, ...) @snprintf(ptr noundef %14, i64 noundef %15, ptr noundef @.str.87, i64 noundef %16) #12
  store i32 %17, ptr %5, align 4
  br label %116

18:                                               ; preds = %4
  %19 = load i64, ptr %9, align 8, !tbaa !79
  %20 = and i64 %19, 1
  %21 = icmp ne i64 %20, 0
  br i1 %21, label %22, label %30

22:                                               ; preds = %18
  %23 = load ptr, ptr %6, align 8, !tbaa !33
  %24 = load i64, ptr %7, align 8, !tbaa !79
  %25 = load i64, ptr %8, align 8, !tbaa !133
  %26 = lshr i64 %25, 9
  %27 = add i64 %26, 1
  %28 = lshr i64 %27, 1
  %29 = call i32 (ptr, i64, ptr, ...) @snprintf(ptr noundef %23, i64 noundef %24, ptr noundef @.str.88, i64 noundef %28, ptr noundef @.str.80) #12
  store i32 %29, ptr %5, align 4
  br label %116

30:                                               ; preds = %18
  %31 = load i64, ptr %9, align 8, !tbaa !79
  %32 = and i64 %31, 32
  %33 = icmp ne i64 %32, 0
  br i1 %33, label %34, label %75

34:                                               ; preds = %30
  %35 = load i64, ptr %8, align 8, !tbaa !133
  %36 = icmp ult i64 %35, 10000000
  br i1 %36, label %37, label %45

37:                                               ; preds = %34
  %38 = load ptr, ptr %6, align 8, !tbaa !33
  %39 = load i64, ptr %7, align 8, !tbaa !79
  %40 = load i64, ptr %8, align 8, !tbaa !133
  %41 = udiv i64 %40, 500
  %42 = add i64 %41, 1
  %43 = udiv i64 %42, 2
  %44 = call i32 (ptr, i64, ptr, ...) @snprintf(ptr noundef %38, i64 noundef %39, ptr noundef @.str.88, i64 noundef %43, ptr noundef @.str.80) #12
  store i32 %44, ptr %5, align 4
  br label %116

45:                                               ; preds = %34
  %46 = load i64, ptr %8, align 8, !tbaa !133
  %47 = icmp ult i64 %46, 10000000000
  br i1 %47, label %48, label %56

48:                                               ; preds = %45
  %49 = load ptr, ptr %6, align 8, !tbaa !33
  %50 = load i64, ptr %7, align 8, !tbaa !79
  %51 = load i64, ptr %8, align 8, !tbaa !133
  %52 = udiv i64 %51, 500000
  %53 = add i64 %52, 1
  %54 = udiv i64 %53, 2
  %55 = call i32 (ptr, i64, ptr, ...) @snprintf(ptr noundef %49, i64 noundef %50, ptr noundef @.str.88, i64 noundef %54, ptr noundef @.str.82) #12
  store i32 %55, ptr %5, align 4
  br label %116

56:                                               ; preds = %45
  %57 = load i64, ptr %8, align 8, !tbaa !133
  %58 = icmp ult i64 %57, 10000000000000
  br i1 %58, label %59, label %67

59:                                               ; preds = %56
  %60 = load ptr, ptr %6, align 8, !tbaa !33
  %61 = load i64, ptr %7, align 8, !tbaa !79
  %62 = load i64, ptr %8, align 8, !tbaa !133
  %63 = udiv i64 %62, 500000000
  %64 = add i64 %63, 1
  %65 = udiv i64 %64, 2
  %66 = call i32 (ptr, i64, ptr, ...) @snprintf(ptr noundef %60, i64 noundef %61, ptr noundef @.str.88, i64 noundef %65, ptr noundef @.str.84) #12
  store i32 %66, ptr %5, align 4
  br label %116

67:                                               ; preds = %56
  %68 = load ptr, ptr %6, align 8, !tbaa !33
  %69 = load i64, ptr %7, align 8, !tbaa !79
  %70 = load i64, ptr %8, align 8, !tbaa !133
  %71 = udiv i64 %70, 500000000000
  %72 = add i64 %71, 1
  %73 = udiv i64 %72, 2
  %74 = call i32 (ptr, i64, ptr, ...) @snprintf(ptr noundef %68, i64 noundef %69, ptr noundef @.str.88, i64 noundef %73, ptr noundef @.str.86) #12
  store i32 %74, ptr %5, align 4
  br label %116

75:                                               ; preds = %30
  %76 = load i64, ptr %8, align 8, !tbaa !133
  %77 = icmp ult i64 %76, 10485760
  br i1 %77, label %78, label %86

78:                                               ; preds = %75
  %79 = load ptr, ptr %6, align 8, !tbaa !33
  %80 = load i64, ptr %7, align 8, !tbaa !79
  %81 = load i64, ptr %8, align 8, !tbaa !133
  %82 = lshr i64 %81, 9
  %83 = add i64 %82, 1
  %84 = lshr i64 %83, 1
  %85 = call i32 (ptr, i64, ptr, ...) @snprintf(ptr noundef %79, i64 noundef %80, ptr noundef @.str.88, i64 noundef %84, ptr noundef @.str.79) #12
  store i32 %85, ptr %5, align 4
  br label %116

86:                                               ; preds = %75
  %87 = load i64, ptr %8, align 8, !tbaa !133
  %88 = icmp ult i64 %87, 10737418240
  br i1 %88, label %89, label %97

89:                                               ; preds = %86
  %90 = load ptr, ptr %6, align 8, !tbaa !33
  %91 = load i64, ptr %7, align 8, !tbaa !79
  %92 = load i64, ptr %8, align 8, !tbaa !133
  %93 = lshr i64 %92, 19
  %94 = add i64 %93, 1
  %95 = lshr i64 %94, 1
  %96 = call i32 (ptr, i64, ptr, ...) @snprintf(ptr noundef %90, i64 noundef %91, ptr noundef @.str.88, i64 noundef %95, ptr noundef @.str.81) #12
  store i32 %96, ptr %5, align 4
  br label %116

97:                                               ; preds = %86
  %98 = load i64, ptr %8, align 8, !tbaa !133
  %99 = icmp ult i64 %98, 10995116277760
  br i1 %99, label %100, label %108

100:                                              ; preds = %97
  %101 = load ptr, ptr %6, align 8, !tbaa !33
  %102 = load i64, ptr %7, align 8, !tbaa !79
  %103 = load i64, ptr %8, align 8, !tbaa !133
  %104 = lshr i64 %103, 29
  %105 = add i64 %104, 1
  %106 = lshr i64 %105, 1
  %107 = call i32 (ptr, i64, ptr, ...) @snprintf(ptr noundef %101, i64 noundef %102, ptr noundef @.str.88, i64 noundef %106, ptr noundef @.str.83) #12
  store i32 %107, ptr %5, align 4
  br label %116

108:                                              ; preds = %97
  %109 = load ptr, ptr %6, align 8, !tbaa !33
  %110 = load i64, ptr %7, align 8, !tbaa !79
  %111 = load i64, ptr %8, align 8, !tbaa !133
  %112 = lshr i64 %111, 39
  %113 = add i64 %112, 1
  %114 = lshr i64 %113, 1
  %115 = call i32 (ptr, i64, ptr, ...) @snprintf(ptr noundef %109, i64 noundef %110, ptr noundef @.str.88, i64 noundef %114, ptr noundef @.str.85) #12
  store i32 %115, ptr %5, align 4
  br label %116

116:                                              ; preds = %108, %100, %89, %78, %67, %59, %48, %37, %22, %13
  %117 = load i32, ptr %5, align 4
  ret i32 %117
}