; Function Attrs: inlinehint nofree nounwind uwtable
define internal fastcc void @hwloc_memory_size_snprintf(ptr noundef writeonly captures(none) %0, i64 noundef range(i64 25, 129) %1, i64 noundef %2, i64 noundef %3) unnamed_addr #15 {
  %5 = and i64 %3, 16
  %.not = icmp eq i64 %5, 0
  br i1 %.not, label %8, label %6

6:                                                ; preds = %4
  %7 = tail call i32 (ptr, i64, ptr, ...) @snprintf(ptr noundef nonnull dereferenceable(1) %0, i64 noundef %1, ptr noundef nonnull @.str.87, i64 noundef %2) #26
  br label %69

8:                                                ; preds = %4
  %9 = and i64 %3, 1
  %.not40 = icmp eq i64 %9, 0
  br i1 %.not40, label %15, label %10

10:                                               ; preds = %8
  %11 = lshr i64 %2, 9
  %12 = add nuw nsw i64 %11, 1
  %13 = lshr i64 %12, 1
  %14 = tail call i32 (ptr, i64, ptr, ...) @snprintf(ptr noundef nonnull dereferenceable(1) %0, i64 noundef %1, ptr noundef nonnull @.str.88, i64 noundef %13, ptr noundef nonnull @.str.80) #26
  br label %69

15:                                               ; preds = %8
  %16 = and i64 %3, 32
  %.not41 = icmp eq i64 %16, 0
  br i1 %.not41, label %43, label %17

17:                                               ; preds = %15
  %18 = icmp ult i64 %2, 10000000
  br i1 %18, label %19, label %24

19:                                               ; preds = %17
  %.lhs.trunc = trunc nuw i64 %2 to i32
  %20 = udiv i32 %.lhs.trunc, 500
  %narrow = add nuw nsw i32 %20, 1
  %21 = lshr i32 %narrow, 1
  %22 = zext nneg i32 %21 to i64
  %23 = tail call i32 (ptr, i64, ptr, ...) @snprintf(ptr noundef nonnull dereferenceable(1) %0, i64 noundef %1, ptr noundef nonnull @.str.88, i64 noundef %22, ptr noundef nonnull @.str.80) #26
  br label %69

24:                                               ; preds = %17
  %25 = icmp ult i64 %2, 10000000000
  br i1 %25, label %26, label %31

26:                                               ; preds = %24
  %27 = udiv i64 %2, 500000
  %28 = add nuw nsw i64 %27, 1
  %29 = lshr i64 %28, 1
  %30 = tail call i32 (ptr, i64, ptr, ...) @snprintf(ptr noundef nonnull dereferenceable(1) %0, i64 noundef %1, ptr noundef nonnull @.str.88, i64 noundef %29, ptr noundef nonnull @.str.82) #26
  br label %69

31:                                               ; preds = %24
  %32 = icmp ult i64 %2, 10000000000000
  br i1 %32, label %33, label %38

33:                                               ; preds = %31
  %34 = udiv i64 %2, 500000000
  %35 = add nuw nsw i64 %34, 1
  %36 = lshr i64 %35, 1
  %37 = tail call i32 (ptr, i64, ptr, ...) @snprintf(ptr noundef nonnull dereferenceable(1) %0, i64 noundef %1, ptr noundef nonnull @.str.88, i64 noundef %36, ptr noundef nonnull @.str.84) #26
  br label %69

38:                                               ; preds = %31
  %39 = udiv i64 %2, 500000000000
  %40 = add nuw nsw i64 %39, 1
  %41 = lshr i64 %40, 1
  %42 = tail call i32 (ptr, i64, ptr, ...) @snprintf(ptr noundef nonnull dereferenceable(1) %0, i64 noundef %1, ptr noundef nonnull @.str.88, i64 noundef %41, ptr noundef nonnull @.str.86) #26
  br label %69

43:                                               ; preds = %15
  %44 = icmp ult i64 %2, 10485760
  br i1 %44, label %45, label %50

45:                                               ; preds = %43
  %46 = lshr i64 %2, 9
  %47 = add nuw nsw i64 %46, 1
  %48 = lshr i64 %47, 1
  %49 = tail call i32 (ptr, i64, ptr, ...) @snprintf(ptr noundef nonnull dereferenceable(1) %0, i64 noundef %1, ptr noundef nonnull @.str.88, i64 noundef %48, ptr noundef nonnull @.str.79) #26
  br label %69

50:                                               ; preds = %43
  %51 = icmp ult i64 %2, 10737418240
  br i1 %51, label %52, label %57

52:                                               ; preds = %50
  %53 = lshr i64 %2, 19
  %54 = add nuw nsw i64 %53, 1
  %55 = lshr i64 %54, 1
  %56 = tail call i32 (ptr, i64, ptr, ...) @snprintf(ptr noundef nonnull dereferenceable(1) %0, i64 noundef %1, ptr noundef nonnull @.str.88, i64 noundef %55, ptr noundef nonnull @.str.81) #26
  br label %69

57:                                               ; preds = %50
  %58 = icmp ult i64 %2, 10995116277760
  br i1 %58, label %59, label %64

59:                                               ; preds = %57
  %60 = lshr i64 %2, 29
  %61 = add nuw nsw i64 %60, 1
  %62 = lshr i64 %61, 1
  %63 = tail call i32 (ptr, i64, ptr, ...) @snprintf(ptr noundef nonnull dereferenceable(1) %0, i64 noundef %1, ptr noundef nonnull @.str.88, i64 noundef %62, ptr noundef nonnull @.str.83) #26
  br label %69

64:                                               ; preds = %57
  %65 = lshr i64 %2, 39
  %66 = add nuw nsw i64 %65, 1
  %67 = lshr i64 %66, 1
  %68 = tail call i32 (ptr, i64, ptr, ...) @snprintf(ptr noundef nonnull dereferenceable(1) %0, i64 noundef %1, ptr noundef nonnull @.str.88, i64 noundef %67, ptr noundef nonnull @.str.85) #26
  br label %69

69:                                               ; preds = %64, %59, %52, %45, %38, %33, %26, %19, %10, %6
  ret void
}